; Function Attrs: nofree norecurse nosync nounwind memory(argmem: read, inaccessiblemem: read) uwtable
define internal i32 @SSE16x16_C(ptr noalias noundef readonly captures(none) %0, ptr noalias noundef readonly captures(none) %1) #7 {
  tail call void @llvm.experimental.noalias.scope.decl(metadata !56)
  tail call void @llvm.experimental.noalias.scope.decl(metadata !59)
  br label %.preheader.i

.preheader.i:                                     ; preds = %13, %2
  %.024.i = phi ptr [ %0, %2 ], [ %14, %13 ]
  %.01623.i = phi i32 [ 0, %2 ], [ %16, %13 ]
  %.01722.i = phi i32 [ 0, %2 ], [ %12, %13 ]
  %.01821.i = phi ptr [ %1, %2 ], [ %15, %13 ]
  br label %3

3:                                                ; preds = %3, %.preheader.i
  %indvars.iv.i = phi i64 [ 0, %.preheader.i ], [ %indvars.iv.next.i, %3 ]
  %.119.i = phi i32 [ %.01722.i, %.preheader.i ], [ %12, %3 ]
  %4 = getelementptr inbounds nuw i8, ptr %.024.i, i64 %indvars.iv.i
  %5 = load i8, ptr %4, align 1, !tbaa !14, !alias.scope !56, !noalias !59
  %6 = zext i8 %5 to i32
  %7 = getelementptr inbounds nuw i8, ptr %.01821.i, i64 %indvars.iv.i
  %8 = load i8, ptr %7, align 1, !tbaa !14, !alias.scope !59, !noalias !56
  %9 = zext i8 %8 to i32
  %10 = sub nsw i32 %6, %9
  %11 = mul nsw i32 %10, %10
  %12 = add nsw i32 %11, %.119.i
  %indvars.iv.next.i = add nuw nsw i64 %indvars.iv.i, 1
  %exitcond.not.i = icmp eq i64 %indvars.iv.next.i, 16
  br i1 %exitcond.not.i, label %13, label %3, !llvm.loop !61

13:                                               ; preds = %3
  %14 = getelementptr inbounds nuw i8, ptr %.024.i, i64 32
  %15 = getelementptr inbounds nuw i8, ptr %.01821.i, i64 32
  %16 = add nuw nsw i32 %.01623.i, 1
  %exitcond26.not.i = icmp eq i32 %16, 16
  br i1 %exitcond26.not.i, label %GetSSE.exit, label %.preheader.i, !llvm.loop !62

GetSSE.exit:                                      ; preds = %13
  ret i32 %12
}